; Function Attrs: mustprogress nounwind
define internal noundef i32 @_ZN4mold3elfL8get_viewINS0_5PPC32EEENS_12PluginStatusEPKvPS5_(ptr nocapture noundef readonly %handle, ptr nocapture noundef writeonly %view) #4 {
entry:
  %ref.tmp = alloca %"class.std::__cxx11::basic_ostringstream", align 8
  call void @_ZNSt7__cxx1119basic_ostringstreamIcSt11char_traitsIcESaIcEEC1Ev(ptr noundef nonnull align 8 dereferenceable(112) %ref.tmp) #19
  %call.i = call noundef nonnull align 8 dereferenceable(8) ptr @_ZStlsISt11char_traitsIcEERSt13basic_ostreamIcT_ES5_PKc(ptr noundef nonnull align 8 dereferenceable(8) %ref.tmp, ptr noundef nonnull @.str.61) #19
  call void @_ZNSt7__cxx1119basic_ostringstreamIcSt11char_traitsIcESaIcEED1Ev(ptr noundef nonnull align 8 dereferenceable(112) %ref.tmp) #19
  %mf = getelementptr inbounds i8, ptr %handle, i64 8
  %0 = load ptr, ptr %mf, align 8
  %data = getelementptr inbounds i8, ptr %0, i64 32
  %1 = load ptr, ptr %data, align 8
  store ptr %1, ptr %view, align 8
  ret i32 0
}